target datalayout = "e-m:e-p270:32:32-p271:32:32-p272:64:64-i64:64-i128:128-f80:128-n8:16:32:64-S128"
target triple = "x86_64-unknown-linux-gnu"

%"class.cvc5::internal::prop::MinisatSatSolver" = type { %"class.cvc5::internal::prop::CDCLTSatSolver", %"class.cvc5::internal::EnvObj", ptr, ptr, %"class.std::unordered_set", %"class.cvc5::internal::prop::MinisatSatSolver::Statistics" }
%"class.cvc5::internal::prop::CDCLTSatSolver" = type { %"class.cvc5::internal::prop::SatSolver" }
%"class.cvc5::internal::prop::SatSolver" = type { ptr }
%"class.cvc5::internal::EnvObj" = type { ptr, ptr }
%"class.std::unordered_set" = type { %"class.std::_Hashtable" }
%"class.std::_Hashtable" = type { ptr, i64, %"struct.std::__detail::_Hash_node_base", i64, %"struct.std::__detail::_Prime_rehash_policy", ptr }
%"struct.std::__detail::_Hash_node_base" = type { ptr }
%"struct.std::__detail::_Prime_rehash_policy" = type { float, i64 }
%"class.cvc5::internal::prop::MinisatSatSolver::Statistics" = type { %"class.cvc5::internal::ReferenceStat", %"class.cvc5::internal::ReferenceStat", %"class.cvc5::internal::ReferenceStat", %"class.cvc5::internal::ReferenceStat", %"class.cvc5::internal::ReferenceStat", %"class.cvc5::internal::ReferenceStat", %"class.cvc5::internal::ReferenceStat", %"class.cvc5::internal::ReferenceStat", %"class.cvc5::internal::ReferenceStat" }
%"class.cvc5::internal::ReferenceStat" = type { ptr }
%"class.cvc5::internal::Minisat::lbool" = type { i8 }
%"class.cvc5::internal::Minisat::vec.280" = type { ptr, i32, i32 }
%"class.cvc5::internal::Minisat::Solver" = type <{ %"class.cvc5::internal::EnvObj", ptr, ptr, i32, i32, i32, [4 x i8], %"class.std::unique_ptr.270", i8, [7 x i8], %"class.cvc5::internal::Minisat::vec", %"class.cvc5::internal::Minisat::vec.278", i8, i8, [6 x i8], %"class.cvc5::internal::Minisat::vec.279", %"class.cvc5::internal::Minisat::vec.280", i32, [4 x i8], double, double, double, double, i8, [3 x i8], i32, i32, i8, i8, [2 x i8], double, i32, [4 x i8], double, double, double, i32, [4 x i8], double, i64, i64, i64, i64, i64, i64, i64, i64, i64, i64, i64, i64, i8, [7 x i8], %"class.cvc5::internal::Minisat::vec.281", %"class.cvc5::internal::Minisat::vec.281", double, %"class.cvc5::internal::Minisat::vec.282", double, %"class.cvc5::internal::Minisat::OccLists", %"class.cvc5::internal::Minisat::vec.279", %"class.cvc5::internal::Minisat::vec.285", %"class.cvc5::internal::Minisat::vec.284", %"class.cvc5::internal::Minisat::vec.284", %"class.cvc5::internal::Minisat::vec.285", %"class.cvc5::internal::Minisat::vec.280", %"class.cvc5::internal::Minisat::vec.285", %"class.cvc5::internal::Minisat::vec.278", %"class.cvc5::internal::Minisat::vec.286", i32, i32, i64, %"class.cvc5::internal::Minisat::vec.280", %"class.cvc5::internal::Minisat::Heap", double, i8, [7 x i8], %"class.cvc5::internal::Minisat::ClauseAllocator", %"class.cvc5::internal::Minisat::vec.278", %"class.cvc5::internal::Minisat::vec.284", %"class.cvc5::internal::Minisat::vec.280", %"class.cvc5::internal::Minisat::vec.280", %"class.cvc5::internal::Minisat::vec.280", double, double, i32, [4 x i8], i64, i64, i8, i8, [6 x i8] }>
%"class.std::unique_ptr.270" = type { %"struct.std::__uniq_ptr_data.271" }
%"struct.std::__uniq_ptr_data.271" = type { %"class.std::__uniq_ptr_impl.272" }
%"class.std::__uniq_ptr_impl.272" = type { %"class.std::tuple.273" }
%"class.std::tuple.273" = type { %"struct.std::_Tuple_impl.274" }
%"struct.std::_Tuple_impl.274" = type { %"struct.std::_Head_base.277" }
%"struct.std::_Head_base.277" = type { ptr }
%"class.cvc5::internal::Minisat::vec" = type { ptr, i32, i32 }
%"class.cvc5::internal::Minisat::vec.281" = type { ptr, i32, i32 }
%"class.cvc5::internal::Minisat::vec.282" = type { ptr, i32, i32 }
%"class.cvc5::internal::Minisat::OccLists" = type { %"class.cvc5::internal::Minisat::vec.283", %"class.cvc5::internal::Minisat::vec.284", %"class.cvc5::internal::Minisat::vec.280", %"struct.cvc5::internal::Minisat::Solver::WatcherDeleted" }
%"class.cvc5::internal::Minisat::vec.283" = type { ptr, i32, i32 }
%"struct.cvc5::internal::Minisat::Solver::WatcherDeleted" = type { ptr }
%"class.cvc5::internal::Minisat::vec.279" = type { ptr, i32, i32 }
%"class.cvc5::internal::Minisat::vec.285" = type { ptr, i32, i32 }
%"class.cvc5::internal::Minisat::vec.286" = type { ptr, i32, i32 }
%"class.cvc5::internal::Minisat::Heap" = type { %"struct.cvc5::internal::Minisat::Solver::VarOrderLt", %"class.cvc5::internal::Minisat::vec.285", %"class.cvc5::internal::Minisat::vec.285" }
%"struct.cvc5::internal::Minisat::Solver::VarOrderLt" = type { ptr }
%"class.cvc5::internal::Minisat::ClauseAllocator" = type { %"class.cvc5::internal::Minisat::RegionAllocator.base", i8, [3 x i8] }
%"class.cvc5::internal::Minisat::RegionAllocator.base" = type <{ ptr, i32, i32, i32 }>
%"class.cvc5::internal::Minisat::vec.278" = type { ptr, i32, i32 }
%"class.cvc5::internal::Minisat::vec.284" = type { ptr, i32, i32 }

; Function Attrs: mustprogress nounwind uwtable
define linkonce_odr hidden noundef zeroext i1 @_ZNK4cvc58internal7Minisat5lbooleqES2_(ptr noundef nonnull align 1 dereferenceable(1) %this, i8 %b.coerce) #4 comdat align 2 {
entry:
  %b = alloca %"class.cvc5::internal::Minisat::lbool", align 1
  %this.addr = alloca ptr, align 8
  %coerce.dive = getelementptr inbounds %"class.cvc5::internal::Minisat::lbool", ptr %b, i32 0, i32 0
  store i8 %b.coerce, ptr %coerce.dive, align 1
  store ptr %this, ptr %this.addr, align 8
  %this1 = load ptr, ptr %this.addr, align 8
  %value = getelementptr inbounds %"class.cvc5::internal::Minisat::lbool", ptr %b, i32 0, i32 0
  %0 = load i8, ptr %value, align 1
  %conv = zext i8 %0 to i32
  %and = and i32 %conv, 2
  %value2 = getelementptr inbounds %"class.cvc5::internal::Minisat::lbool", ptr %this1, i32 0, i32 0
  %1 = load i8, ptr %value2, align 1
  %conv3 = zext i8 %1 to i32
  %and4 = and i32 %conv3, 2
  %and5 = and i32 %and, %and4
  %value6 = getelementptr inbounds %"class.cvc5::internal::Minisat::lbool", ptr %b, i32 0, i32 0
  %2 = load i8, ptr %value6, align 1
  %conv7 = zext i8 %2 to i32
  %and8 = and i32 %conv7, 2
  %tobool = icmp ne i32 %and8, 0
  %lnot = xor i1 %tobool, true
  %conv9 = zext i1 %lnot to i32
  %value10 = getelementptr inbounds %"class.cvc5::internal::Minisat::lbool", ptr %this1, i32 0, i32 0
  %3 = load i8, ptr %value10, align 1
  %conv11 = zext i8 %3 to i32
  %value12 = getelementptr inbounds %"class.cvc5::internal::Minisat::lbool", ptr %b, i32 0, i32 0
  %4 = load i8, ptr %value12, align 1
  %conv13 = zext i8 %4 to i32
  %cmp = icmp eq i32 %conv11, %conv13
  %conv14 = zext i1 %cmp to i32
  %and15 = and i32 %conv9, %conv14
  %or = or i32 %and5, %and15
  %tobool16 = icmp ne i32 %or, 0
  ret i1 %tobool16
}

; Function Attrs: mustprogress nounwind uwtable
define linkonce_odr hidden void @_ZN4cvc58internal7Minisat5lboolC2Eh(ptr noundef nonnull align 1 dereferenceable(1) %this, i8 noundef zeroext %v) unnamed_addr #4 comdat align 2 {
entry:
  %this.addr = alloca ptr, align 8
  %v.addr = alloca i8, align 1
  store ptr %this, ptr %this.addr, align 8
  store i8 %v, ptr %v.addr, align 1
  %this1 = load ptr, ptr %this.addr, align 8
  %value = getelementptr inbounds %"class.cvc5::internal::Minisat::lbool", ptr %this1, i32 0, i32 0
  %0 = load i8, ptr %v.addr, align 1
  store i8 %0, ptr %value, align 1
  ret void
}

; Function Attrs: mustprogress nounwind uwtable
define linkonce_odr hidden void @_ZN4cvc58internal7Minisat3vecINS1_3LitEE5clearEb(ptr noundef nonnull align 8 dereferenceable(16) %this, i1 noundef zeroext %dealloc) #4 comdat align 2 {
entry:
  %this.addr = alloca ptr, align 8
  %dealloc.addr = alloca i8, align 1
  %i = alloca i32, align 4
  store ptr %this, ptr %this.addr, align 8
  %frombool = zext i1 %dealloc to i8
  store i8 %frombool, ptr %dealloc.addr, align 1
  %this1 = load ptr, ptr %this.addr, align 8
  %data = getelementptr inbounds %"class.cvc5::internal::Minisat::vec.280", ptr %this1, i32 0, i32 0
  %0 = load ptr, ptr %data, align 8
  %cmp = icmp ne ptr %0, null
  br i1 %cmp, label %if.then, label %if.end8

if.then:                                          ; preds = %entry
  store i32 0, ptr %i, align 4
  br label %for.cond

for.cond:                                         ; preds = %for.inc, %if.then
  %1 = load i32, ptr %i, align 4
  %sz = getelementptr inbounds %"class.cvc5::internal::Minisat::vec.280", ptr %this1, i32 0, i32 1
  %2 = load i32, ptr %sz, align 8
  %cmp2 = icmp slt i32 %1, %2
  br i1 %cmp2, label %for.body, label %for.end

for.body:                                         ; preds = %for.cond
  br label %for.inc

for.inc:                                          ; preds = %for.body
  %3 = load i32, ptr %i, align 4
  %inc = add nsw i32 %3, 1
  store i32 %inc, ptr %i, align 4
  br label %for.cond, !llvm.loop !20

for.end:                                          ; preds = %for.cond
  %sz4 = getelementptr inbounds %"class.cvc5::internal::Minisat::vec.280", ptr %this1, i32 0, i32 1
  store i32 0, ptr %sz4, align 8
  %4 = load i8, ptr %dealloc.addr, align 1
  %tobool = trunc i8 %4 to i1
  br i1 %tobool, label %if.then5, label %if.end

if.then5:                                         ; preds = %for.end
  %data6 = getelementptr inbounds %"class.cvc5::internal::Minisat::vec.280", ptr %this1, i32 0, i32 0
  %5 = load ptr, ptr %data6, align 8
  call void @free(ptr noundef %5) #3
  %data7 = getelementptr inbounds %"class.cvc5::internal::Minisat::vec.280", ptr %this1, i32 0, i32 0
  store ptr null, ptr %data7, align 8
  %cap = getelementptr inbounds %"class.cvc5::internal::Minisat::vec.280", ptr %this1, i32 0, i32 2
  store i32 0, ptr %cap, align 4
  br label %if.end

if.end:                                           ; preds = %if.then5, %for.end
  br label %if.end8

if.end8:                                          ; preds = %if.end, %entry
  ret void
}

; Function Attrs: mustprogress nounwind uwtable
define linkonce_odr hidden void @_ZN4cvc58internal7Minisat6Solver14clearInterruptEv(ptr noundef nonnull align 8 dereferenceable(850) %this) #4 comdat align 2 {
entry:
  %this.addr = alloca ptr, align 8
  store ptr %this, ptr %this.addr, align 8
  %this1 = load ptr, ptr %this.addr, align 8
  %asynch_interrupt = getelementptr inbounds %"class.cvc5::internal::Minisat::Solver", ptr %this1, i32 0, i32 88
  store i8 0, ptr %asynch_interrupt, align 8
  ret void
}

; Function Attrs: mustprogress uwtable
define hidden noundef i32 @_ZN4cvc58internal4prop16MinisatSatSolver17toSatLiteralValueENS0_7Minisat5lboolE(i8 %res.coerce) #5 align 2 {
entry:
  %retval = alloca i32, align 4
  %res = alloca %"class.cvc5::internal::Minisat::lbool", align 1
  %agg.tmp = alloca %"class.cvc5::internal::Minisat::lbool", align 1
  %agg.tmp2 = alloca %"class.cvc5::internal::Minisat::lbool", align 1
  %coerce.dive = getelementptr inbounds %"class.cvc5::internal::Minisat::lbool", ptr %res, i32 0, i32 0
  store i8 %res.coerce, ptr %coerce.dive, align 1
  call void @_ZN4cvc58internal7Minisat5lboolC2Eh(ptr noundef nonnull align 1 dereferenceable(1) %agg.tmp, i8 noundef zeroext 0)
  %coerce.dive1 = getelementptr inbounds %"class.cvc5::internal::Minisat::lbool", ptr %agg.tmp, i32 0, i32 0
  %0 = load i8, ptr %coerce.dive1, align 1
  %call = call noundef zeroext i1 @_ZNK4cvc58internal7Minisat5lbooleqES2_(ptr noundef nonnull align 1 dereferenceable(1) %res, i8 %0)
  br i1 %call, label %if.then, label %if.end

if.then:                                          ; preds = %entry
  store i32 1, ptr %retval, align 4
  br label %return

if.end:                                           ; preds = %entry
  call void @_ZN4cvc58internal7Minisat5lboolC2Eh(ptr noundef nonnull align 1 dereferenceable(1) %agg.tmp2, i8 noundef zeroext 2)
  %coerce.dive3 = getelementptr inbounds %"class.cvc5::internal::Minisat::lbool", ptr %agg.tmp2, i32 0, i32 0
  %1 = load i8, ptr %coerce.dive3, align 1
  %call4 = call noundef zeroext i1 @_ZNK4cvc58internal7Minisat5lbooleqES2_(ptr noundef nonnull align 1 dereferenceable(1) %res, i8 %1)
  br i1 %call4, label %if.then5, label %if.end6

if.then5:                                         ; preds = %if.end
  store i32 0, ptr %retval, align 4
  br label %return

if.end6:                                          ; preds = %if.end
  store i32 2, ptr %retval, align 4
  br label %return

return:                                           ; preds = %if.end6, %if.then5, %if.then
  %2 = load i32, ptr %retval, align 4
  ret i32 %2
}

; Function Attrs: mustprogress uwtable
define linkonce_odr hidden i8 @_ZN4cvc58internal7Minisat10SimpSolver5solveEbb(ptr noundef nonnull align 8 dereferenceable(1108) %this, i1 noundef zeroext %do_simp, i1 noundef zeroext %turn_off_simp) #5 comdat align 2 {
entry:
  %retval = alloca %"class.cvc5::internal::Minisat::lbool", align 1
  %this.addr = alloca ptr, align 8
  %do_simp.addr = alloca i8, align 1
  %turn_off_simp.addr = alloca i8, align 1
  store ptr %this, ptr %this.addr, align 8
  %frombool = zext i1 %do_simp to i8
  store i8 %frombool, ptr %do_simp.addr, align 1
  %frombool1 = zext i1 %turn_off_simp to i8
  store i8 %frombool1, ptr %turn_off_simp.addr, align 1
  %this2 = load ptr, ptr %this.addr, align 8
  call void @_ZN4cvc58internal7Minisat6Solver9budgetOffEv(ptr noundef nonnull align 8 dereferenceable(850) %this2)
  %assumptions = getelementptr inbounds %"class.cvc5::internal::Minisat::Solver", ptr %this2, i32 0, i32 71
  call void @_ZN4cvc58internal7Minisat3vecINS1_3LitEE5clearEb(ptr noundef nonnull align 8 dereferenceable(16) %assumptions, i1 noundef zeroext false)
  %0 = load i8, ptr %do_simp.addr, align 1
  %tobool = trunc i8 %0 to i1
  %1 = load i8, ptr %turn_off_simp.addr, align 1
  %tobool3 = trunc i8 %1 to i1
  %call = call i8 @_ZN4cvc58internal7Minisat10SimpSolver6solve_Ebb(ptr noundef nonnull align 8 dereferenceable(1108) %this2, i1 noundef zeroext %tobool, i1 noundef zeroext %tobool3)
  %coerce.dive = getelementptr inbounds %"class.cvc5::internal::Minisat::lbool", ptr %retval, i32 0, i32 0
  store i8 %call, ptr %coerce.dive, align 1
  %coerce.dive4 = getelementptr inbounds %"class.cvc5::internal::Minisat::lbool", ptr %retval, i32 0, i32 0
  %2 = load i8, ptr %coerce.dive4, align 1
  ret i8 %2
}

; Function Attrs: mustprogress nounwind uwtable
define linkonce_odr hidden void @_ZN4cvc58internal7Minisat6Solver9budgetOffEv(ptr noundef nonnull align 8 dereferenceable(850) %this) #4 comdat align 2 {
entry:
  %this.addr = alloca ptr, align 8
  store ptr %this, ptr %this.addr, align 8
  %this1 = load ptr, ptr %this.addr, align 8
  %propagation_budget = getelementptr inbounds %"class.cvc5::internal::Minisat::Solver", ptr %this1, i32 0, i32 87
  store i64 -1, ptr %propagation_budget, align 8
  %conflict_budget = getelementptr inbounds %"class.cvc5::internal::Minisat::Solver", ptr %this1, i32 0, i32 86
  store i64 -1, ptr %conflict_budget, align 8
  ret void
}

; Function Attrs: mustprogress uwtable
define hidden noundef i32 @_ZN4cvc58internal4prop16MinisatSatSolver5solveEv(ptr noundef nonnull align 8 dereferenceable(168) %this) unnamed_addr #5 align 2 {
entry:
  %this.addr = alloca ptr, align 8
  %result = alloca i32, align 4
  %agg.tmp = alloca %"class.cvc5::internal::Minisat::lbool", align 1
  store ptr %this, ptr %this.addr, align 8
  %this1 = load ptr, ptr %this.addr, align 8
  call void @_ZN4cvc58internal4prop16MinisatSatSolver12setupOptionsEv(ptr noundef nonnull align 8 dereferenceable(168) %this1)
  %d_minisat = getelementptr inbounds %"class.cvc5::internal::prop::MinisatSatSolver", ptr %this1, i32 0, i32 2
  %0 = load ptr, ptr %d_minisat, align 8
  call void @_ZN4cvc58internal7Minisat6Solver9budgetOffEv(ptr noundef nonnull align 8 dereferenceable(850) %0)
  %d_minisat2 = getelementptr inbounds %"class.cvc5::internal::prop::MinisatSatSolver", ptr %this1, i32 0, i32 2
  %1 = load ptr, ptr %d_minisat2, align 8
  %call = call i8 @_ZN4cvc58internal7Minisat10SimpSolver5solveEbb(ptr noundef nonnull align 8 dereferenceable(1108) %1, i1 noundef zeroext true, i1 noundef zeroext false)
  %coerce.dive = getelementptr inbounds %"class.cvc5::internal::Minisat::lbool", ptr %agg.tmp, i32 0, i32 0
  store i8 %call, ptr %coerce.dive, align 1
  %coerce.dive3 = getelementptr inbounds %"class.cvc5::internal::Minisat::lbool", ptr %agg.tmp, i32 0, i32 0
  %2 = load i8, ptr %coerce.dive3, align 1
  %call4 = call noundef i32 @_ZN4cvc58internal4prop16MinisatSatSolver17toSatLiteralValueENS0_7Minisat5lboolE(i8 %2)
  store i32 %call4, ptr %result, align 4
  %d_minisat5 = getelementptr inbounds %"class.cvc5::internal::prop::MinisatSatSolver", ptr %this1, i32 0, i32 2
  %3 = load ptr, ptr %d_minisat5, align 8
  call void @_ZN4cvc58internal7Minisat6Solver14clearInterruptEv(ptr noundef nonnull align 8 dereferenceable(850) %3)
  %4 = load i32, ptr %result, align 4
  ret i32 %4
}