; Function Attrs: mustprogress uwtable
define hidden noundef i32 @_ZN4cvc58internal4prop16MinisatSatSolver5solveEv(ptr noundef nonnull align 8 dereferenceable(168) %this) unnamed_addr #3 align 2 {
entry:
  tail call void @_ZN4cvc58internal4prop16MinisatSatSolver12setupOptionsEv(ptr noundef nonnull align 8 dereferenceable(168) %this)
  %d_minisat = getelementptr inbounds i8, ptr %this, i64 24
  %0 = load ptr, ptr %d_minisat, align 8
  %conflict_budget.i = getelementptr inbounds i8, ptr %0, i64 832
  tail call void @llvm.memset.p0.i64(ptr noundef nonnull align 8 dereferenceable(16) %conflict_budget.i, i8 -1, i64 16, i1 false)
  %1 = load ptr, ptr %d_minisat, align 8
  %conflict_budget.i.i = getelementptr inbounds i8, ptr %1, i64 832
  tail call void @llvm.memset.p0.i64(ptr noundef nonnull align 8 dereferenceable(16) %conflict_budget.i.i, i8 -1, i64 16, i1 false)
  %assumptions.i = getelementptr inbounds i8, ptr %1, i64 632
  %2 = load ptr, ptr %assumptions.i, align 8
  %cmp.not.i.i = icmp eq ptr %2, null
  br i1 %cmp.not.i.i, label %_ZN4cvc58internal7Minisat10SimpSolver5solveEbb.exit, label %for.cond.preheader.i.i

for.cond.preheader.i.i:                           ; preds = %entry
  %sz.le.i.i = getelementptr inbounds i8, ptr %1, i64 640
  store i32 0, ptr %sz.le.i.i, align 8
  br label %_ZN4cvc58internal7Minisat10SimpSolver5solveEbb.exit

_ZN4cvc58internal7Minisat10SimpSolver5solveEbb.exit: ; preds = %entry, %for.cond.preheader.i.i
  %call.i = tail call i8 @_ZN4cvc58internal7Minisat10SimpSolver6solve_Ebb(ptr noundef nonnull align 8 dereferenceable(1108) %1, i1 noundef zeroext true, i1 noundef zeroext false)
  %cmp.i.i = icmp eq i8 %call.i, 0
  %and53.i1.i = and i8 %call.i, 2
  %3 = xor i8 %and53.i1.i, 2
  %narrow.i = select i1 %cmp.i.i, i8 1, i8 %3
  %retval.0.i = zext nneg i8 %narrow.i to i32
  %4 = load ptr, ptr %d_minisat, align 8
  %asynch_interrupt.i = getelementptr inbounds i8, ptr %4, i64 848
  store i8 0, ptr %asynch_interrupt.i, align 8
  ret i32 %retval.0.i
}